; ModuleID = '44/793.c'
source_filename = "44/793.c"
target datalayout = "e-m:e-p270:32:32-p271:32:32-p272:64:64-i64:64-f80:128-n8:16:32:64-S128"
target triple = "x86_64-pc-linux-gnu"

@.str = private unnamed_addr constant [2 x i8] c"-\00", align 1
@.str.1 = private unnamed_addr constant [3 x i8] c"%c\00", align 1
@.str.2 = private unnamed_addr constant [2 x i8] c"\0A\00", align 1

; Function Attrs: noinline nounwind uwtable
define dso_local i32 @get(i8 signext %0) #0 {
  %2 = alloca i32, align 4
  %3 = alloca i8, align 1
  store i8 %0, i8* %3, align 1
  %4 = load i8, i8* %3, align 1
  %5 = sext i8 %4 to i32
  %6 = icmp sge i32 %5, 65
  br i1 %6, label %7, label %16

7:                                                ; preds = %1
  %8 = load i8, i8* %3, align 1
  %9 = sext i8 %8 to i32
  %10 = icmp sle i32 %9, 90
  br i1 %10, label %11, label %16

11:                                               ; preds = %7
  %12 = load i8, i8* %3, align 1
  %13 = sext i8 %12 to i32
  %14 = sub nsw i32 %13, 65
  %15 = add nsw i32 %14, 10
  store i32 %15, i32* %2, align 4
  br label %20

16:                                               ; preds = %7, %1
  %17 = load i8, i8* %3, align 1
  %18 = sext i8 %17 to i32
  %19 = sub nsw i32 %18, 48
  store i32 %19, i32* %2, align 4
  br label %20

20:                                               ; preds = %16, %11
  %21 = load i32, i32* %2, align 4
  ret i32 %21
}

; Function Attrs: noinline nounwind uwtable
define dso_local void @main() #0 {
  %1 = alloca [1000 x i8], align 16
  %2 = alloca [1000 x i8], align 16
  %3 = alloca i8, align 1
  %4 = alloca i32, align 4
  %5 = alloca i32, align 4
  %6 = alloca i32, align 4
  store i8 48, i8* %3, align 1
  br label %7

7:                                                ; preds = %94, %0
  %8 = load i8, i8* %3, align 1
  %9 = sext i8 %8 to i32
  %10 = icmp ne i32 %9, -1
  br i1 %10, label %11, label %96

11:                                               ; preds = %7
  %12 = call i32 @getchar()
  %13 = trunc i32 %12 to i8
  store i8 %13, i8* %3, align 1
  %14 = load i8, i8* %3, align 1
  %15 = sext i8 %14 to i32
  %16 = icmp eq i32 %15, -1
  br i1 %16, label %17, label %18

17:                                               ; preds = %11
  br label %96

18:                                               ; preds = %11
  %19 = getelementptr inbounds [1000 x i8], [1000 x i8]* %1, i64 0, i64 0
  %20 = call i32 (i8*, ...) bitcast (i32 (...)* @gets to i32 (i8*, ...)*)(i8* %19)
  store i32 0, i32* %4, align 4
  br label %21

21:                                               ; preds = %39, %18
  %22 = load i32, i32* %4, align 4
  %23 = sext i32 %22 to i64
  %24 = getelementptr inbounds [1000 x i8], [1000 x i8]* %1, i64 0, i64 0
  %25 = call i64 @strlen(i8* %24) #3
  %26 = icmp ult i64 %23, %25
  br i1 %26, label %27, label %42

27:                                               ; preds = %21
  %28 = getelementptr inbounds [1000 x i8], [1000 x i8]* %1, i64 0, i64 0
  %29 = call i64 @strlen(i8* %28) #3
  %30 = sub i64 %29, 1
  %31 = load i32, i32* %4, align 4
  %32 = sext i32 %31 to i64
  %33 = sub i64 %30, %32
  %34 = getelementptr inbounds [1000 x i8], [1000 x i8]* %1, i64 0, i64 %33
  %35 = load i8, i8* %34, align 1
  %36 = load i32, i32* %4, align 4
  %37 = sext i32 %36 to i64
  %38 = getelementptr inbounds [1000 x i8], [1000 x i8]* %2, i64 0, i64 %37
  store i8 %35, i8* %38, align 1
  br label %39

39:                                               ; preds = %27
  %40 = load i32, i32* %4, align 4
  %41 = add nsw i32 %40, 1
  store i32 %41, i32* %4, align 4
  br label %21

42:                                               ; preds = %21
  store i32 0, i32* %5, align 4
  %43 = getelementptr inbounds [1000 x i8], [1000 x i8]* %1, i64 0, i64 0
  %44 = call i64 @strlen(i8* %43) #3
  %45 = trunc i64 %44 to i32
  store i32 %45, i32* %6, align 4
  %46 = load i8, i8* %3, align 1
  %47 = load i32, i32* %6, align 4
  %48 = sext i32 %47 to i64
  %49 = getelementptr inbounds [1000 x i8], [1000 x i8]* %2, i64 0, i64 %48
  store i8 %46, i8* %49, align 1
  %50 = getelementptr inbounds [1000 x i8], [1000 x i8]* %1, i64 0, i64 0
  %51 = call i64 @strlen(i8* %50) #3
  %52 = getelementptr inbounds [1000 x i8], [1000 x i8]* %2, i64 0, i64 %51
  %53 = load i8, i8* %52, align 1
  %54 = sext i8 %53 to i32
  %55 = icmp eq i32 %54, 45
  br i1 %55, label %56, label %60

56:                                               ; preds = %42
  %57 = load i32, i32* %6, align 4
  %58 = add nsw i32 %57, -1
  store i32 %58, i32* %6, align 4
  %59 = call i32 (i8*, ...) @printf(i8* getelementptr inbounds ([2 x i8], [2 x i8]* @.str, i64 0, i64 0))
  br label %60

60:                                               ; preds = %56, %42
  br label %61

61:                                               ; preds = %75, %60
  %62 = load i32, i32* %5, align 4
  %63 = sext i32 %62 to i64
  %64 = getelementptr inbounds [1000 x i8], [1000 x i8]* %2, i64 0, i64 %63
  %65 = load i8, i8* %64, align 1
  %66 = sext i8 %65 to i32
  %67 = icmp eq i32 %66, 48
  br i1 %67, label %68, label %73

68:                                               ; preds = %61
  %69 = load i32, i32* %6, align 4
  %70 = load i32, i32* %5, align 4
  %71 = sub nsw i32 %69, %70
  %72 = icmp sgt i32 %71, 0
  br label %73

73:                                               ; preds = %68, %61
  %74 = phi i1 [ false, %61 ], [ %72, %68 ]
  br i1 %74, label %75, label %78

75:                                               ; preds = %73
  %76 = load i32, i32* %5, align 4
  %77 = add nsw i32 %76, 1
  store i32 %77, i32* %5, align 4
  br label %61

78:                                               ; preds = %73
  %79 = load i32, i32* %5, align 4
  store i32 %79, i32* %4, align 4
  br label %80

80:                                               ; preds = %91, %78
  %81 = load i32, i32* %4, align 4
  %82 = load i32, i32* %6, align 4
  %83 = icmp sle i32 %81, %82
  br i1 %83, label %84, label %94

84:                                               ; preds = %80
  %85 = load i32, i32* %4, align 4
  %86 = sext i32 %85 to i64
  %87 = getelementptr inbounds [1000 x i8], [1000 x i8]* %2, i64 0, i64 %86
  %88 = load i8, i8* %87, align 1
  %89 = sext i8 %88 to i32
  %90 = call i32 (i8*, ...) @printf(i8* getelementptr inbounds ([3 x i8], [3 x i8]* @.str.1, i64 0, i64 0), i32 %89)
  br label %91

91:                                               ; preds = %84
  %92 = load i32, i32* %4, align 4
  %93 = add nsw i32 %92, 1
  store i32 %93, i32* %4, align 4
  br label %80

94:                                               ; preds = %80
  %95 = call i32 (i8*, ...) @printf(i8* getelementptr inbounds ([2 x i8], [2 x i8]* @.str.2, i64 0, i64 0))
  br label %7

96:                                               ; preds = %17, %7
  ret void
}

declare dso_local i32 @getchar() #1

declare dso_local i32 @gets(...) #1

; Function Attrs: nounwind readonly
declare dso_local i64 @strlen(i8*) #2

declare dso_local i32 @printf(i8*, ...) #1


!llvm.module.flags = !{!0}
!llvm.ident = !{!1}

!0 = !{i32 1, !"wchar_size", i32 4}
!1 = !{!"clang version 10.0.0-4ubuntu1 "}
